; ModuleID = 'source-C-CXX/25/790.cpp'
source_filename = "source-C-CXX/25/790.cpp"
target datalayout = "e-m:e-p270:32:32-p271:32:32-p272:64:64-i64:64-f80:128-n8:16:32:64-S128"
target triple = "x86_64-pc-linux-gnu"

%"class.std::ios_base::Init" = type { i8 }
%"class.std::basic_istream" = type { i32 (...)**, i64, %"class.std::basic_ios" }
%"class.std::basic_ios" = type { %"class.std::ios_base", %"class.std::basic_ostream"*, i8, i8, %"class.std::basic_streambuf"*, %"class.std::ctype"*, %"class.std::num_put"*, %"class.std::num_get"* }
%"class.std::ios_base" = type { i32 (...)**, i64, i64, i32, i32, i32, %"struct.std::ios_base::_Callback_list"*, %"struct.std::ios_base::_Words", [8 x %"struct.std::ios_base::_Words"], i32, %"struct.std::ios_base::_Words"*, %"class.std::locale" }
%"struct.std::ios_base::_Callback_list" = type { %"struct.std::ios_base::_Callback_list"*, void (i32, %"class.std::ios_base"*, i32)*, i32, i32 }
%"struct.std::ios_base::_Words" = type { i8*, i64 }
%"class.std::locale" = type { %"class.std::locale::_Impl"* }
%"class.std::locale::_Impl" = type { i32, %"class.std::locale::facet"**, i64, %"class.std::locale::facet"**, i8** }
%"class.std::locale::facet" = type <{ i32 (...)**, i32, [4 x i8] }>
%"class.std::basic_ostream" = type { i32 (...)**, %"class.std::basic_ios" }
%"class.std::basic_streambuf" = type { i32 (...)**, i8*, i8*, i8*, i8*, i8*, i8*, %"class.std::locale" }
%"class.std::ctype" = type <{ %"class.std::locale::facet.base", [4 x i8], %struct.__locale_struct*, i8, [7 x i8], i32*, i32*, i16*, i8, [256 x i8], [256 x i8], i8, [6 x i8] }>
%"class.std::locale::facet.base" = type <{ i32 (...)**, i32 }>
%struct.__locale_struct = type { [13 x %struct.__locale_data*], i16*, i32*, i32*, [13 x i8*] }
%struct.__locale_data = type opaque
%"class.std::num_put" = type { %"class.std::locale::facet.base", [4 x i8] }
%"class.std::num_get" = type { %"class.std::locale::facet.base", [4 x i8] }

@_ZStL8__ioinit = internal global %"class.std::ios_base::Init" zeroinitializer, align 1
@__dso_handle = external hidden global i8
@_ZSt3cin = external global %"class.std::basic_istream", align 8
@_ZSt4cout = external global %"class.std::basic_ostream", align 8
@llvm.global_ctors = appending global [1 x { i32, void ()*, i8* }] [{ i32, void ()*, i8* } { i32 65535, void ()* @_GLOBAL__sub_I_790.cpp, i8* null }]

declare void @_ZNSt8ios_base4InitC1Ev(%"class.std::ios_base::Init"* nonnull align 1 dereferenceable(1)) unnamed_addr #0

; Function Attrs: nounwind
declare void @_ZNSt8ios_base4InitD1Ev(%"class.std::ios_base::Init"* nonnull align 1 dereferenceable(1)) unnamed_addr #1

; Function Attrs: nofree nounwind
declare i32 @__cxa_atexit(void (i8*)*, i8*, i8*) local_unnamed_addr #2

; Function Attrs: mustprogress norecurse sspstrong uwtable
define dso_local i32 @main() local_unnamed_addr #3 {
  %1 = alloca [105 x i8], align 16
  %2 = getelementptr inbounds [105 x i8], [105 x i8]* %1, i64 0, i64 0
  call void @llvm.lifetime.start.p0i8(i64 105, i8* nonnull %2) #8
  %3 = call nonnull align 8 dereferenceable(16) %"class.std::basic_istream"* @_ZNSi3getEPclc(%"class.std::basic_istream"* nonnull align 8 dereferenceable(16) @_ZSt3cin, i8* nonnull %2, i64 105, i8 signext 10)
  %4 = call i64 @strlen(i8* noundef nonnull %2) #9
  %5 = trunc i64 %4 to i32
  br label %6

6:                                                ; preds = %0, %127
  %7 = phi i32 [ 0, %0 ], [ %130, %127 ]
  %8 = phi i32 [ %5, %0 ], [ %128, %127 ]
  %9 = sext i32 %7 to i64
  %10 = getelementptr inbounds [105 x i8], [105 x i8]* %1, i64 0, i64 %9
  %11 = load i8, i8* %10, align 1, !tbaa !5
  %12 = icmp eq i8 %11, 32
  br i1 %12, label %13, label %127

13:                                               ; preds = %6
  %14 = add nsw i32 %7, 1
  %15 = sext i32 %14 to i64
  %16 = getelementptr inbounds [105 x i8], [105 x i8]* %1, i64 0, i64 %15
  %17 = load i8, i8* %16, align 1, !tbaa !5
  %18 = icmp eq i8 %17, 32
  br i1 %18, label %19, label %127

19:                                               ; preds = %13
  %20 = icmp slt i32 %7, %8
  br i1 %20, label %21, label %124

21:                                               ; preds = %19
  %22 = add nsw i64 %9, 1
  %23 = add i32 %8, 1
  %24 = xor i32 %7, -1
  %25 = add i32 %8, %24
  %26 = zext i32 %25 to i64
  %27 = add nuw nsw i64 %26, 1
  %28 = icmp ult i32 %25, 7
  br i1 %28, label %114, label %29

29:                                               ; preds = %21
  %30 = icmp ult i32 %25, 31
  br i1 %30, label %93, label %31

31:                                               ; preds = %29
  %32 = and i64 %27, 8589934560
  %33 = add nsw i64 %32, -32
  %34 = lshr exact i64 %33, 5
  %35 = add nuw nsw i64 %34, 1
  %36 = and i64 %35, 1
  %37 = icmp eq i64 %33, 0
  br i1 %37, label %71, label %38

38:                                               ; preds = %31
  %39 = and i64 %35, 1152921504606846974
  br label %40

40:                                               ; preds = %40, %38
  %41 = phi i64 [ 0, %38 ], [ %68, %40 ]
  %42 = phi i64 [ %39, %38 ], [ %69, %40 ]
  %43 = add i64 %22, %41
  %44 = add nsw i64 %43, 1
  %45 = getelementptr inbounds [105 x i8], [105 x i8]* %1, i64 0, i64 %44
  %46 = bitcast i8* %45 to <16 x i8>*
  %47 = load <16 x i8>, <16 x i8>* %46, align 1, !tbaa !5
  %48 = getelementptr inbounds i8, i8* %45, i64 16
  %49 = bitcast i8* %48 to <16 x i8>*
  %50 = load <16 x i8>, <16 x i8>* %49, align 1, !tbaa !5
  %51 = getelementptr inbounds [105 x i8], [105 x i8]* %1, i64 0, i64 %43
  %52 = bitcast i8* %51 to <16 x i8>*
  store <16 x i8> %47, <16 x i8>* %52, align 1, !tbaa !5
  %53 = getelementptr inbounds i8, i8* %51, i64 16
  %54 = bitcast i8* %53 to <16 x i8>*
  store <16 x i8> %50, <16 x i8>* %54, align 1, !tbaa !5
  %55 = or i64 %41, 32
  %56 = add i64 %22, %55
  %57 = add nsw i64 %56, 1
  %58 = getelementptr inbounds [105 x i8], [105 x i8]* %1, i64 0, i64 %57
  %59 = bitcast i8* %58 to <16 x i8>*
  %60 = load <16 x i8>, <16 x i8>* %59, align 1, !tbaa !5
  %61 = getelementptr inbounds i8, i8* %58, i64 16
  %62 = bitcast i8* %61 to <16 x i8>*
  %63 = load <16 x i8>, <16 x i8>* %62, align 1, !tbaa !5
  %64 = getelementptr inbounds [105 x i8], [105 x i8]* %1, i64 0, i64 %56
  %65 = bitcast i8* %64 to <16 x i8>*
  store <16 x i8> %60, <16 x i8>* %65, align 1, !tbaa !5
  %66 = getelementptr inbounds i8, i8* %64, i64 16
  %67 = bitcast i8* %66 to <16 x i8>*
  store <16 x i8> %63, <16 x i8>* %67, align 1, !tbaa !5
  %68 = add nuw i64 %41, 64
  %69 = add i64 %42, -2
  %70 = icmp eq i64 %69, 0
  br i1 %70, label %71, label %40, !llvm.loop !8

71:                                               ; preds = %40, %31
  %72 = phi i64 [ 0, %31 ], [ %68, %40 ]
  %73 = icmp eq i64 %36, 0
  br i1 %73, label %87, label %74

74:                                               ; preds = %71
  %75 = add i64 %22, %72
  %76 = add nsw i64 %75, 1
  %77 = getelementptr inbounds [105 x i8], [105 x i8]* %1, i64 0, i64 %76
  %78 = bitcast i8* %77 to <16 x i8>*
  %79 = load <16 x i8>, <16 x i8>* %78, align 1, !tbaa !5
  %80 = getelementptr inbounds i8, i8* %77, i64 16
  %81 = bitcast i8* %80 to <16 x i8>*
  %82 = load <16 x i8>, <16 x i8>* %81, align 1, !tbaa !5
  %83 = getelementptr inbounds [105 x i8], [105 x i8]* %1, i64 0, i64 %75
  %84 = bitcast i8* %83 to <16 x i8>*
  store <16 x i8> %79, <16 x i8>* %84, align 1, !tbaa !5
  %85 = getelementptr inbounds i8, i8* %83, i64 16
  %86 = bitcast i8* %85 to <16 x i8>*
  store <16 x i8> %82, <16 x i8>* %86, align 1, !tbaa !5
  br label %87

87:                                               ; preds = %71, %74
  %88 = icmp eq i64 %27, %32
  br i1 %88, label %124, label %89

89:                                               ; preds = %87
  %90 = add nsw i64 %22, %32
  %91 = and i64 %27, 24
  %92 = icmp eq i64 %91, 0
  br i1 %92, label %114, label %93

93:                                               ; preds = %29, %89
  %94 = phi i64 [ %32, %89 ], [ 0, %29 ]
  %95 = xor i32 %7, -1
  %96 = add i32 %8, %95
  %97 = zext i32 %96 to i64
  %98 = add nuw nsw i64 %97, 1
  %99 = and i64 %98, 8589934584
  %100 = add nsw i64 %22, %99
  br label %101

101:                                              ; preds = %101, %93
  %102 = phi i64 [ %94, %93 ], [ %110, %101 ]
  %103 = add i64 %22, %102
  %104 = add nsw i64 %103, 1
  %105 = getelementptr inbounds [105 x i8], [105 x i8]* %1, i64 0, i64 %104
  %106 = bitcast i8* %105 to <8 x i8>*
  %107 = load <8 x i8>, <8 x i8>* %106, align 1, !tbaa !5
  %108 = getelementptr inbounds [105 x i8], [105 x i8]* %1, i64 0, i64 %103
  %109 = bitcast i8* %108 to <8 x i8>*
  store <8 x i8> %107, <8 x i8>* %109, align 1, !tbaa !5
  %110 = add nuw i64 %102, 8
  %111 = icmp eq i64 %110, %99
  br i1 %111, label %112, label %101, !llvm.loop !11

112:                                              ; preds = %101
  %113 = icmp eq i64 %98, %99
  br i1 %113, label %124, label %114

114:                                              ; preds = %21, %89, %112
  %115 = phi i64 [ %22, %21 ], [ %90, %89 ], [ %100, %112 ]
  br label %116

116:                                              ; preds = %114, %116
  %117 = phi i64 [ %118, %116 ], [ %115, %114 ]
  %118 = add nsw i64 %117, 1
  %119 = getelementptr inbounds [105 x i8], [105 x i8]* %1, i64 0, i64 %118
  %120 = load i8, i8* %119, align 1, !tbaa !5
  %121 = getelementptr inbounds [105 x i8], [105 x i8]* %1, i64 0, i64 %117
  store i8 %120, i8* %121, align 1, !tbaa !5
  %122 = trunc i64 %118 to i32
  %123 = icmp eq i32 %23, %122
  br i1 %123, label %124, label %116, !llvm.loop !12

124:                                              ; preds = %116, %87, %112, %19
  %125 = add nsw i32 %8, -1
  %126 = add nsw i32 %7, -1
  br label %127

127:                                              ; preds = %124, %13, %6
  %128 = phi i32 [ %125, %124 ], [ %8, %13 ], [ %8, %6 ]
  %129 = phi i32 [ %126, %124 ], [ %7, %13 ], [ %7, %6 ]
  %130 = add nsw i32 %129, 1
  %131 = icmp slt i32 %129, 100
  br i1 %131, label %6, label %132, !llvm.loop !14

132:                                              ; preds = %127
  %133 = call i64 @strlen(i8* noundef nonnull dereferenceable(1) %2) #8
  %134 = call nonnull align 8 dereferenceable(8) %"class.std::basic_ostream"* @_ZSt16__ostream_insertIcSt11char_traitsIcEERSt13basic_ostreamIT_T0_ES6_PKS3_l(%"class.std::basic_ostream"* nonnull align 8 dereferenceable(8) @_ZSt4cout, i8* nonnull %2, i64 %133)
  %135 = load i8*, i8** bitcast (%"class.std::basic_ostream"* @_ZSt4cout to i8**), align 8, !tbaa !15
  %136 = getelementptr i8, i8* %135, i64 -24
  %137 = bitcast i8* %136 to i64*
  %138 = load i64, i64* %137, align 8
  %139 = add nsw i64 %138, 240
  %140 = getelementptr inbounds i8, i8* bitcast (%"class.std::basic_ostream"* @_ZSt4cout to i8*), i64 %139
  %141 = bitcast i8* %140 to %"class.std::ctype"**
  %142 = load %"class.std::ctype"*, %"class.std::ctype"** %141, align 8, !tbaa !17
  %143 = icmp eq %"class.std::ctype"* %142, null
  br i1 %143, label %144, label %145

144:                                              ; preds = %132
  call void @_ZSt16__throw_bad_castv() #10
  unreachable

145:                                              ; preds = %132
  %146 = getelementptr inbounds %"class.std::ctype", %"class.std::ctype"* %142, i64 0, i32 8
  %147 = load i8, i8* %146, align 8, !tbaa !21
  %148 = icmp eq i8 %147, 0
  br i1 %148, label %152, label %149

149:                                              ; preds = %145
  %150 = getelementptr inbounds %"class.std::ctype", %"class.std::ctype"* %142, i64 0, i32 9, i64 10
  %151 = load i8, i8* %150, align 1, !tbaa !5
  br label %158

152:                                              ; preds = %145
  call void @_ZNKSt5ctypeIcE13_M_widen_initEv(%"class.std::ctype"* nonnull align 8 dereferenceable(570) %142)
  %153 = bitcast %"class.std::ctype"* %142 to i8 (%"class.std::ctype"*, i8)***
  %154 = load i8 (%"class.std::ctype"*, i8)**, i8 (%"class.std::ctype"*, i8)*** %153, align 8, !tbaa !15
  %155 = getelementptr inbounds i8 (%"class.std::ctype"*, i8)*, i8 (%"class.std::ctype"*, i8)** %154, i64 6
  %156 = load i8 (%"class.std::ctype"*, i8)*, i8 (%"class.std::ctype"*, i8)** %155, align 8
  %157 = call signext i8 %156(%"class.std::ctype"* nonnull align 8 dereferenceable(570) %142, i8 signext 10)
  br label %158

158:                                              ; preds = %149, %152
  %159 = phi i8 [ %151, %149 ], [ %157, %152 ]
  %160 = call nonnull align 8 dereferenceable(8) %"class.std::basic_ostream"* @_ZNSo3putEc(%"class.std::basic_ostream"* nonnull align 8 dereferenceable(8) @_ZSt4cout, i8 signext %159)
  %161 = call nonnull align 8 dereferenceable(8) %"class.std::basic_ostream"* @_ZNSo5flushEv(%"class.std::basic_ostream"* nonnull align 8 dereferenceable(8) %160)
  call void @llvm.lifetime.end.p0i8(i64 105, i8* nonnull %2) #8
  ret i32 0
}

; Function Attrs: argmemonly mustprogress nofree nosync nounwind willreturn
declare void @llvm.lifetime.start.p0i8(i64 immarg, i8* nocapture) #4

declare nonnull align 8 dereferenceable(16) %"class.std::basic_istream"* @_ZNSi3getEPclc(%"class.std::basic_istream"* nonnull align 8 dereferenceable(16), i8*, i64, i8 signext) local_unnamed_addr #0

; Function Attrs: argmemonly mustprogress nofree nounwind readonly willreturn
declare i64 @strlen(i8* nocapture) local_unnamed_addr #5

; Function Attrs: argmemonly mustprogress nofree nosync nounwind willreturn
declare void @llvm.lifetime.end.p0i8(i64 immarg, i8* nocapture) #4

declare nonnull align 8 dereferenceable(8) %"class.std::basic_ostream"* @_ZSt16__ostream_insertIcSt11char_traitsIcEERSt13basic_ostreamIT_T0_ES6_PKS3_l(%"class.std::basic_ostream"* nonnull align 8 dereferenceable(8), i8*, i64) local_unnamed_addr #0

declare nonnull align 8 dereferenceable(8) %"class.std::basic_ostream"* @_ZNSo3putEc(%"class.std::basic_ostream"* nonnull align 8 dereferenceable(8), i8 signext) local_unnamed_addr #0

declare nonnull align 8 dereferenceable(8) %"class.std::basic_ostream"* @_ZNSo5flushEv(%"class.std::basic_ostream"* nonnull align 8 dereferenceable(8)) local_unnamed_addr #0

; Function Attrs: noreturn
declare void @_ZSt16__throw_bad_castv() local_unnamed_addr #6

declare void @_ZNKSt5ctypeIcE13_M_widen_initEv(%"class.std::ctype"* nonnull align 8 dereferenceable(570)) local_unnamed_addr #0

; Function Attrs: sspstrong uwtable
define internal void @_GLOBAL__sub_I_790.cpp() #7 section ".text.startup" {
  tail call void @_ZNSt8ios_base4InitC1Ev(%"class.std::ios_base::Init"* nonnull align 1 dereferenceable(1) @_ZStL8__ioinit)
  %1 = tail call i32 @__cxa_atexit(void (i8*)* bitcast (void (%"class.std::ios_base::Init"*)* @_ZNSt8ios_base4InitD1Ev to void (i8*)*), i8* getelementptr inbounds (%"class.std::ios_base::Init", %"class.std::ios_base::Init"* @_ZStL8__ioinit, i64 0, i32 0), i8* nonnull @__dso_handle) #8
  ret void
}


!llvm.module.flags = !{!0, !1, !2, !3}
!llvm.ident = !{!4}

!0 = !{i32 1, !"wchar_size", i32 4}
!1 = !{i32 7, !"PIC Level", i32 2}
!2 = !{i32 7, !"PIE Level", i32 2}
!3 = !{i32 7, !"uwtable", i32 1}
!4 = !{!"clang version 13.0.0"}
!5 = !{!6, !6, i64 0}
!6 = !{!"omnipotent char", !7, i64 0}
!7 = !{!"Simple C++ TBAA"}
!8 = distinct !{!8, !9, !10}
!9 = !{!"llvm.loop.mustprogress"}
!10 = !{!"llvm.loop.isvectorized", i32 1}
!11 = distinct !{!11, !9, !10}
!12 = distinct !{!12, !9, !13, !10}
!13 = !{!"llvm.loop.unroll.runtime.disable"}
!14 = distinct !{!14, !9}
!15 = !{!16, !16, i64 0}
!16 = !{!"vtable pointer", !7, i64 0}
!17 = !{!18, !19, i64 240}
!18 = !{!"_ZTSSt9basic_iosIcSt11char_traitsIcEE", !19, i64 216, !6, i64 224, !20, i64 225, !19, i64 232, !19, i64 240, !19, i64 248, !19, i64 256}
!19 = !{!"any pointer", !6, i64 0}
!20 = !{!"bool", !6, i64 0}
!21 = !{!22, !6, i64 56}
!22 = !{!"_ZTSSt5ctypeIcE", !19, i64 16, !20, i64 24, !19, i64 32, !19, i64 40, !19, i64 48, !6, i64 56, !6, i64 57, !6, i64 313, !6, i64 569}
